# SymbolsHelper-Confirmed: 0.3.0 amd64
libhawaiishell.so.0 libhawaiishell0 #MINVER#
 _ZN6Hawaii11Containment10addElementERK7QString@Base 0
 _ZN6Hawaii11Containment10setPackageERKNS_7PackageE@Base 0
 _ZN6Hawaii11Containment11qt_metacallEN11QMetaObject4CallEiPPv@Base 0
 _ZN6Hawaii11Containment11qt_metacastEPKc@Base 0
 _ZN6Hawaii11Containment11setLocationENS_5Types8LocationE@Base 0
 _ZN6Hawaii11Containment11typeChangedENS_5Types15ContainmentTypeE@Base 0
 _ZN6Hawaii11Containment12elementAddedEPNS_7ElementE@Base 0
 _ZN6Hawaii11Containment12setImmutableEb@Base 0
 _ZN6Hawaii11Containment13removeElementEPNS_7ElementE@Base 0
 _ZN6Hawaii11Containment13setFormFactorENS_5Types10FormFactorE@Base 0
 _ZN6Hawaii11Containment14elementRemovedEPNS_7ElementE@Base 0
 _ZN6Hawaii11Containment14packageChangedERKNS_7PackageE@Base 0
 _ZN6Hawaii11Containment14setConfiguringEb@Base 0
 _ZN6Hawaii11Containment15locationChangedENS_5Types8LocationE@Base 0
 _ZN6Hawaii11Containment16immutableChangedEb@Base 0
 _ZN6Hawaii11Containment16staticMetaObjectE@Base 0
 _ZN6Hawaii11Containment17formFactorChangedENS_5Types10FormFactorE@Base 0
 _ZN6Hawaii11Containment18configuringChangedEb@Base 0
 _ZN6Hawaii11ContainmentC1EPNS_6MantleEP7QObject@Base 0
 _ZN6Hawaii11ContainmentC2EPNS_6MantleEP7QObject@Base 0
 _ZN6Hawaii11ContainmentD0Ev@Base 0
 _ZN6Hawaii11ContainmentD1Ev@Base 0
 _ZN6Hawaii11ContainmentD2Ev@Base 0
 _ZN6Hawaii11ElementItem10initializeEv@Base 0
 _ZN6Hawaii11ElementItem10itemChangeEN10QQuickItem10ItemChangeERKNS1_14ItemChangeDataE@Base 0
 _ZN6Hawaii11ElementItem11busyChangedEv@Base 0
 _ZN6Hawaii11ElementItem11qt_metacallEN11QMetaObject4CallEiPPv@Base 0
 _ZN6Hawaii11ElementItem11qt_metacastEPKc@Base 0
 _ZN6Hawaii11ElementItem11setIconNameERK7QString@Base 0
 _ZN6Hawaii11ElementItem12labelChangedERK7QString@Base 0
 _ZN6Hawaii11ElementItem12titleChangedERK7QString@Base 0
 _ZN6Hawaii11ElementItem15iconNameChangedERK7QString@Base 0
 _ZN6Hawaii11ElementItem15locationChangedENS_5Types8LocationE@Base 0
 _ZN6Hawaii11ElementItem16staticMetaObjectE@Base 0
 _ZN6Hawaii11ElementItem17formFactorChangedENS_5Types10FormFactorE@Base 0
 _ZN6Hawaii11ElementItem17rootObjectChangedEP10QQuickItem@Base 0
 _ZN6Hawaii11ElementItem18setContextPropertyERK7QStringRK8QVariant@Base 0
 _ZN6Hawaii11ElementItem21qmlAttachedPropertiesEP7QObject@Base 0
 _ZN6Hawaii11ElementItem8setLabelERK7QString@Base 0
 _ZN6Hawaii11ElementItem8setTitleERK7QString@Base 0
 _ZN6Hawaii11ElementItemC1EPNS_7ElementEP10QQuickItem@Base 0
 _ZN6Hawaii11ElementItemC2EPNS_7ElementEP10QQuickItem@Base 0
 _ZN6Hawaii11ElementItemD0Ev@Base 0
 _ZN6Hawaii11ElementItemD1Ev@Base 0
 _ZN6Hawaii11ElementItemD2Ev@Base 0
 _ZN6Hawaii15ContainmentItem10initializeEv@Base 0
 _ZN6Hawaii15ContainmentItem11qt_metacallEN11QMetaObject4CallEiPPv@Base 0
 _ZN6Hawaii15ContainmentItem11qt_metacastEPKc@Base 0
 _ZN6Hawaii15ContainmentItem11setLocationENS_5Types8LocationE@Base 0
 _ZN6Hawaii15ContainmentItem12elementAddedEPNS_11ElementItemE@Base 0
 _ZN6Hawaii15ContainmentItem12setImmutableEb@Base 0
 _ZN6Hawaii15ContainmentItem13setFormFactorENS_5Types10FormFactorE@Base 0
 _ZN6Hawaii15ContainmentItem14elementRemovedEPNS_11ElementItemE@Base 0
 _ZN6Hawaii15ContainmentItem14setConfiguringEb@Base 0
 _ZN6Hawaii15ContainmentItem15locationChangedENS_5Types8LocationE@Base 0
 _ZN6Hawaii15ContainmentItem16immutableChangedEb@Base 0
 _ZN6Hawaii15ContainmentItem16staticMetaObjectE@Base 0
 _ZN6Hawaii15ContainmentItem17formFactorChangedENS_5Types10FormFactorE@Base 0
 _ZN6Hawaii15ContainmentItem18configuringChangedEb@Base 0
 _ZN6Hawaii15ContainmentItem21qmlAttachedPropertiesEP7QObject@Base 0
 _ZN6Hawaii15ContainmentItemC1EPNS_11ContainmentEP10QQuickItem@Base 0
 _ZN6Hawaii15ContainmentItemC2EPNS_11ContainmentEP10QQuickItem@Base 0
 _ZN6Hawaii15ContainmentItemD0Ev@Base 0
 _ZN6Hawaii15ContainmentItemD1Ev@Base 0
 _ZN6Hawaii15ContainmentItemD2Ev@Base 0
 _ZN6Hawaii5Types11qt_metacallEN11QMetaObject4CallEiPPv@Base 0
 _ZN6Hawaii5Types11qt_metacastEPKc@Base 0
 _ZN6Hawaii5Types16staticMetaObjectE@Base 0
 _ZN6Hawaii5TypesC1EP7QObject@Base 0
 _ZN6Hawaii5TypesC2EP7QObject@Base 0
 _ZN6Hawaii5TypesD0Ev@Base 0
 _ZN6Hawaii5TypesD1Ev@Base 0
 _ZN6Hawaii5TypesD2Ev@Base 0
 _ZN6Hawaii6Mantle11qt_metacallEN11QMetaObject4CallEiPPv@Base 0
 _ZN6Hawaii6Mantle11qt_metacastEPKc@Base 0
 _ZN6Hawaii6Mantle12shellChangedERK7QString@Base 0
 _ZN6Hawaii6Mantle15setShellPackageERKNS_7PackageE@Base 0
 _ZN6Hawaii6Mantle16staticMetaObjectE@Base 0
 _ZN6Hawaii6Mantle19shellPackageChangedERKNS_7PackageE@Base 0
 _ZN6Hawaii6Mantle8setShellERK7QString@Base 0
 _ZN6Hawaii6MantleC1EP7QObject@Base 0
 _ZN6Hawaii6MantleC2EP7QObject@Base 0
 _ZN6Hawaii6MantleD0Ev@Base 0
 _ZN6Hawaii6MantleD1Ev@Base 0
 _ZN6Hawaii6MantleD2Ev@Base 0
 _ZN6Hawaii7Element11qt_metacallEN11QMetaObject4CallEiPPv@Base 0
 _ZN6Hawaii7Element11qt_metacastEPKc@Base 0
 _ZN6Hawaii7Element14setErrorStringERK7QString@Base 0
 _ZN6Hawaii7Element16staticMetaObjectE@Base 0
 _ZN6Hawaii7Element18errorStringChangedEv@Base 0
 _ZN6Hawaii7ElementC1ERK7QStringPNS_11ContainmentEP7QObject@Base 0
 _ZN6Hawaii7ElementC2ERK7QStringPNS_11ContainmentEP7QObject@Base 0
 _ZN6Hawaii7ElementD0Ev@Base 0
 _ZN6Hawaii7ElementD1Ev@Base 0
 _ZN6Hawaii7ElementD2Ev@Base 0
 _ZN6Hawaii9QmlObject11qt_metacallEN11QMetaObject4CallEiPPv@Base 0
 _ZN6Hawaii9QmlObject11qt_metacastEPKc@Base 0
 _ZN6Hawaii9QmlObject16staticMetaObjectE@Base 0
 _ZN6Hawaii9QmlObject22completeInitializationERK5QHashI7QString8QVariantE@Base 0
 _ZN6Hawaii9QmlObject22createObjectFromSourceERK4QUrlRK5QHashI7QString8QVariantE@Base 0
 _ZN6Hawaii9QmlObject24setInitializationDelayedEb@Base 0
 _ZN6Hawaii9QmlObject6engineEv@Base 0
 _ZN6Hawaii9QmlObject8finishedEv@Base 0
 _ZN6Hawaii9QmlObject9setSourceERK4QUrl@Base 0
 _ZN6Hawaii9QmlObjectC1EP7QObject@Base 0
 _ZN6Hawaii9QmlObjectC2EP7QObject@Base 0
 _ZN6Hawaii9QmlObjectD0Ev@Base 0
 _ZN6Hawaii9QmlObjectD1Ev@Base 0
 _ZN6Hawaii9QmlObjectD2Ev@Base 0
 _ZN6Hawaii9QuickView11qt_metacallEN11QMetaObject4CallEiPPv@Base 0
 _ZN6Hawaii9QuickView11qt_metacastEPKc@Base 0
 _ZN6Hawaii9QuickView11setLocationENS_5Types8LocationE@Base 0
 _ZN6Hawaii9QuickView12setImmutableEb@Base 0
 _ZN6Hawaii9QuickView13setFormFactorENS_5Types10FormFactorE@Base 0
 _ZN6Hawaii9QuickView14setConfiguringEb@Base 0
 _ZN6Hawaii9QuickView14setContainmentEPNS_11ContainmentE@Base 0
 _ZN6Hawaii9QuickView15locationChangedENS_5Types8LocationE@Base 0
 _ZN6Hawaii9QuickView16immutableChangedEb@Base 0
 _ZN6Hawaii9QuickView16staticMetaObjectE@Base 0
 _ZN6Hawaii9QuickView17formFactorChangedENS_5Types10FormFactorE@Base 0
 _ZN6Hawaii9QuickView18configuringChangedEb@Base 0
 _ZN6Hawaii9QuickView18containmentChangedEv@Base 0
 _ZN6Hawaii9QuickView23hideConfigurationWindowEv@Base 0
 _ZN6Hawaii9QuickView23showConfigurationWindowEv@Base 0
 _ZN6Hawaii9QuickViewC1EPNS_6MantleEP7QWindow@Base 0
 _ZN6Hawaii9QuickViewC2EPNS_6MantleEP7QWindow@Base 0
 _ZN6Hawaii9QuickViewD0Ev@Base 0
 _ZN6Hawaii9QuickViewD1Ev@Base 0
 _ZN6Hawaii9QuickViewD2Ev@Base 0
 _ZNK6Hawaii11Containment10formFactorEv@Base 0
 _ZNK6Hawaii11Containment10metaObjectEv@Base 0
 _ZNK6Hawaii11Containment11isImmutableEv@Base 0
 _ZNK6Hawaii11Containment13isConfiguringEv@Base 0
 _ZNK6Hawaii11Containment2idEv@Base 0
 _ZNK6Hawaii11Containment4typeEv@Base 0
 _ZNK6Hawaii11Containment6mantleEv@Base 0
 _ZNK6Hawaii11Containment7packageEv@Base 0
 _ZNK6Hawaii11Containment8locationEv@Base 0
 _ZNK6Hawaii11ElementItem10formFactorEv@Base 0
 _ZNK6Hawaii11ElementItem10metaObjectEv@Base 0
 _ZNK6Hawaii11ElementItem10rootObjectEv@Base 0
 _ZNK6Hawaii11ElementItem2idEv@Base 0
 _ZNK6Hawaii11ElementItem5labelEv@Base 0
 _ZNK6Hawaii11ElementItem5titleEv@Base 0
 _ZNK6Hawaii11ElementItem6isBusyEv@Base 0
 _ZNK6Hawaii11ElementItem7elementEv@Base 0
 _ZNK6Hawaii11ElementItem8iconNameEv@Base 0
 _ZNK6Hawaii11ElementItem8locationEv@Base 0
 _ZNK6Hawaii15ContainmentItem10formFactorEv@Base 0
 _ZNK6Hawaii15ContainmentItem10metaObjectEv@Base 0
 _ZNK6Hawaii15ContainmentItem10rootObjectEv@Base 0
 _ZNK6Hawaii15ContainmentItem11containmentEv@Base 0
 _ZNK6Hawaii15ContainmentItem11isImmutableEv@Base 0
 _ZNK6Hawaii15ContainmentItem13isConfiguringEv@Base 0
 _ZNK6Hawaii15ContainmentItem4typeEv@Base 0
 _ZNK6Hawaii15ContainmentItem8locationEv@Base 0
 _ZNK6Hawaii5Types10metaObjectEv@Base 0
 _ZNK6Hawaii6Mantle10metaObjectEv@Base 0
 _ZNK6Hawaii6Mantle12shellPackageEv@Base 0
 _ZNK6Hawaii6Mantle5shellEv@Base 0
 _ZNK6Hawaii6Mantle6engineEv@Base 0
 _ZNK6Hawaii7Element10metaObjectEv@Base 0
 _ZNK6Hawaii7Element11containmentEv@Base 0
 _ZNK6Hawaii7Element11errorStringEv@Base 0
 _ZNK6Hawaii7Element7packageEv@Base 0
 _ZNK6Hawaii7Element9elementIdEv@Base 0
 _ZNK6Hawaii9QmlObject10metaObjectEv@Base 0
 _ZNK6Hawaii9QmlObject10rootObjectEv@Base 0
 _ZNK6Hawaii9QmlObject13mainComponentEv@Base 0
 _ZNK6Hawaii9QmlObject23isInitializationDelayedEv@Base 0
 _ZNK6Hawaii9QmlObject6sourceEv@Base 0
 _ZNK6Hawaii9QuickView10formFactorEv@Base 0
 _ZNK6Hawaii9QuickView10metaObjectEv@Base 0
 _ZNK6Hawaii9QuickView11containmentEv@Base 0
 _ZNK6Hawaii9QuickView11isImmutableEv@Base 0
 _ZNK6Hawaii9QuickView13isConfiguringEv@Base 0
 _ZNK6Hawaii9QuickView6mantleEv@Base 0
 _ZNK6Hawaii9QuickView8locationEv@Base 0
 _ZTIN6Hawaii11ContainmentE@Base 0
 _ZTIN6Hawaii11ElementItemE@Base 0
 _ZTIN6Hawaii15ContainmentItemE@Base 0
 _ZTIN6Hawaii5TypesE@Base 0
 _ZTIN6Hawaii6MantleE@Base 0
 _ZTIN6Hawaii7ElementE@Base 0
 _ZTIN6Hawaii9QmlObjectE@Base 0
 _ZTIN6Hawaii9QuickViewE@Base 0
 _ZTSN6Hawaii11ContainmentE@Base 0
 _ZTSN6Hawaii11ElementItemE@Base 0
 _ZTSN6Hawaii15ContainmentItemE@Base 0
 _ZTSN6Hawaii5TypesE@Base 0
 _ZTSN6Hawaii6MantleE@Base 0
 _ZTSN6Hawaii7ElementE@Base 0
 _ZTSN6Hawaii9QmlObjectE@Base 0
 _ZTSN6Hawaii9QuickViewE@Base 0
 _ZTVN6Hawaii11ContainmentE@Base 0
 _ZTVN6Hawaii11ElementItemE@Base 0
 _ZTVN6Hawaii15ContainmentItemE@Base 0
 _ZTVN6Hawaii5TypesE@Base 0
 _ZTVN6Hawaii6MantleE@Base 0
 _ZTVN6Hawaii7ElementE@Base 0
 _ZTVN6Hawaii9QmlObjectE@Base 0
 _ZTVN6Hawaii9QuickViewE@Base 0
 _ZThn16_N6Hawaii11ElementItemD0Ev@Base 0
 _ZThn16_N6Hawaii11ElementItemD1Ev@Base 0
 _ZThn16_N6Hawaii15ContainmentItemD0Ev@Base 0
 _ZThn16_N6Hawaii15ContainmentItemD1Ev@Base 0
 _ZThn16_N6Hawaii9QuickViewD0Ev@Base 0
 _ZThn16_N6Hawaii9QuickViewD1Ev@Base 0
