# SymbolsHelper-Confirmed: 0.3.0 amd64
libhawaii.so.0 libhawaii0 #MINVER#
 _ZN6Hawaii10DataSource11dataChangedEv@Base 0-1
 _ZN6Hawaii10DataSource11qt_metacallEN11QMetaObject4CallEiPPv@Base 0-1
 _ZN6Hawaii10DataSource11qt_metacastEPKc@Base 0-1
 _ZN6Hawaii10DataSource11removeEntryERK7QString@Base 0-1
 _ZN6Hawaii10DataSource14checkForUpdateEv@Base 0-1
 _ZN6Hawaii10DataSource16staticMetaObjectE@Base 0-1
 _ZN6Hawaii10DataSource6updateEv@Base 0-1
 _ZN6Hawaii10DataSource8setEntryERK7QStringRK8QVariant@Base 0-1
 _ZN6Hawaii10DataSourceC1EP7QObject@Base 0-1
 _ZN6Hawaii10DataSourceC2EP7QObject@Base 0-1
 _ZN6Hawaii10DataSourceD0Ev@Base 0-1
 _ZN6Hawaii10DataSourceD1Ev@Base 0-1
 _ZN6Hawaii10DataSourceD2Ev@Base 0-1
 _ZN6Hawaii12DataProvider10timerEventEP11QTimerEvent@Base 0-1
 _ZN6Hawaii12DataProvider11qt_metacallEN11QMetaObject4CallEiPPv@Base 0-1
 _ZN6Hawaii12DataProvider11qt_metacastEPKc@Base 0-1
 _ZN6Hawaii12DataProvider11sourceAddedERK7QString@Base 0-1
 _ZN6Hawaii12DataProvider12removeSourceERK7QString@Base 0-1
 _ZN6Hawaii12DataProvider13sourceChangedERK7QStringRK4QMapIS1_8QVariantE@Base 0-1
 _ZN6Hawaii12DataProvider13sourceRemovedERK7QString@Base 0-1
 _ZN6Hawaii12DataProvider16staticMetaObjectE@Base 0-1
 _ZN6Hawaii12DataProvider18setPollingIntervalEj@Base 0-1
 _ZN6Hawaii12DataProvider9addSourceEPNS_10DataSourceE@Base 0-1
 _ZN6Hawaii12DataProviderC1EP7QObject@Base 0-1
 _ZN6Hawaii12DataProviderC2EP7QObject@Base 0-1
 _ZN6Hawaii12DataProviderD0Ev@Base 0-1
 _ZN6Hawaii12DataProviderD1Ev@Base 0-1
 _ZN6Hawaii12DataProviderD2Ev@Base 0-1
 _ZN6Hawaii12PluginLoader11listPluginsENS0_10PluginTypeE@Base 0-1
 _ZN6Hawaii12PluginLoader11loadPackageENS0_10PluginTypeE@Base 0-1
 _ZN6Hawaii12PluginLoader8instanceEv@Base 0-1
 _ZN6Hawaii12PluginLoaderC1Ev@Base 0-1
 _ZN6Hawaii12PluginLoaderC2Ev@Base 0-1
 _ZN6Hawaii12PluginLoaderD1Ev@Base 0-1
 _ZN6Hawaii12PluginLoaderD2Ev@Base 0-1
 _ZN6Hawaii14PluginMetadata4loadERK7QString@Base 0-1
 _ZN6Hawaii14PluginMetadataC1ERK7QString@Base 0-1
 _ZN6Hawaii14PluginMetadataC1Ev@Base 0-1
 _ZN6Hawaii14PluginMetadataC2ERK7QString@Base 0-1
 _ZN6Hawaii14PluginMetadataC2Ev@Base 0-1
 _ZN6Hawaii16PackageStructure11pathChangedEPNS_7PackageE@Base 0-1
 _ZN6Hawaii16PackageStructure11qt_metacallEN11QMetaObject4CallEiPPv@Base 0-1
 _ZN6Hawaii16PackageStructure11qt_metacastEPKc@Base 0-1
 _ZN6Hawaii16PackageStructure16staticMetaObjectE@Base 0-1
 _ZN6Hawaii16PackageStructure17initializePackageEPNS_7PackageE@Base 0-1
 _ZN6Hawaii16PackageStructureC1EP7QObjectRK5QListI8QVariantE@Base 0-1
 _ZN6Hawaii16PackageStructureC2EP7QObjectRK5QListI8QVariantE@Base 0-1
 _ZN6Hawaii16PackageStructureD0Ev@Base 0-1
 _ZN6Hawaii16PackageStructureD1Ev@Base 0-1
 _ZN6Hawaii16PackageStructureD2Ev@Base 0-1
 _ZN6Hawaii19DataProviderManager11qt_metacallEN11QMetaObject4CallEiPPv@Base 0-1
 _ZN6Hawaii19DataProviderManager11qt_metacastEPKc@Base 0-1
 _ZN6Hawaii19DataProviderManager12loadProviderERK7QString@Base 0-1
 _ZN6Hawaii19DataProviderManager14unloadProviderERK7QString@Base 0-1
 _ZN6Hawaii19DataProviderManager16staticMetaObjectE@Base 0-1
 _ZN6Hawaii19DataProviderManager8instanceEv@Base 0-1
 _ZN6Hawaii19DataProviderManager8providerERK7QString@Base 0-1
 _ZN6Hawaii19DataProviderManagerC1EP7QObject@Base 0-1
 _ZN6Hawaii19DataProviderManagerC2EP7QObject@Base 0-1
 _ZN6Hawaii19DataProviderManagerD0Ev@Base 0-1
 _ZN6Hawaii19DataProviderManagerD1Ev@Base 0-1
 _ZN6Hawaii19DataProviderManagerD2Ev@Base 0-1
 _ZN6Hawaii7AppInfo11nameChangedERK7QString@Base 0-1
 _ZN6Hawaii7AppInfo11qt_metacallEN11QMetaObject4CallEiPPv@Base 0-1
 _ZN6Hawaii7AppInfo11qt_metacastEPKc@Base 0-1
 _ZN6Hawaii7AppInfo14commentChangedERK7QString@Base 0-1
 _ZN6Hawaii7AppInfo15iconNameChangedERK7QString@Base 0-1
 _ZN6Hawaii7AppInfo16staticMetaObjectE@Base 0-1
 _ZN6Hawaii7AppInfo18genericNameChangedERK7QString@Base 0-1
 _ZN6Hawaii7AppInfo4loadERK7QString@Base 0-1
 _ZN6Hawaii7AppInfo6launchERK11QStringList@Base 0-1
 _ZN6Hawaii7AppInfoC1EP7QObject@Base 0-1
 _ZN6Hawaii7AppInfoC2EP7QObject@Base 0-1
 _ZN6Hawaii7AppInfoD0Ev@Base 0-1
 _ZN6Hawaii7AppInfoD1Ev@Base 0-1
 _ZN6Hawaii7AppInfoD2Ev@Base 0-1
 _ZN6Hawaii7Package11setRequiredEPKcb@Base 0-1
 _ZN6Hawaii7Package12setMimeTypesEPKc11QStringList@Base 0-1
 _ZN6Hawaii7Package16removeDefinitionEPKc@Base 0-1
 _ZN6Hawaii7Package17addFileDefinitionEPKcRK7QStringS5_@Base 0-1
 _ZN6Hawaii7Package19setDefaultMimeTypesE11QStringList@Base 0-1
 _ZN6Hawaii7Package21setAllowExternalPathsEb@Base 0-1
 _ZN6Hawaii7Package21setDefaultPackageRootERK7QString@Base 0-1
 _ZN6Hawaii7Package22addDirectoryDefinitionEPKcRK7QStringS5_@Base 0-1
 _ZN6Hawaii7Package22setContentsPrefixPathsERK11QStringList@Base 0-1
 _ZN6Hawaii7Package7setPathERK7QString@Base 0-1
 _ZN6Hawaii7PackageC1EPNS_16PackageStructureE@Base 0-1
 _ZN6Hawaii7PackageC1ERKS0_@Base 0-1
 _ZN6Hawaii7PackageC2EPNS_16PackageStructureE@Base 0-1
 _ZN6Hawaii7PackageC2ERKS0_@Base 0-1
 _ZN6Hawaii7PackageD1Ev@Base 0-1
 _ZN6Hawaii7PackageD2Ev@Base 0-1
 _ZN6Hawaii7PackageaSERKS0_@Base 0-1
 _ZNK6Hawaii10DataSource10metaObjectEv@Base 0-1
 _ZNK6Hawaii10DataSource4dataEv@Base 0-1
 _ZNK6Hawaii12DataProvider10metaObjectEv@Base 0-1
 _ZNK6Hawaii12DataProvider6sourceERK7QString@Base 0-1
 _ZNK6Hawaii12DataProvider7isEmptyEv@Base 0-1
 _ZNK6Hawaii12DataProvider7isValidEv@Base 0-1
 _ZNK6Hawaii12DataProvider7sourcesEv@Base 0-1
 _ZNK6Hawaii14PluginMetadata10implementsEv@Base 0-1
 _ZNK6Hawaii14PluginMetadata10mainScriptEv@Base 0-1
 _ZNK6Hawaii14PluginMetadata12contactEmailEv@Base 0-1
 _ZNK6Hawaii14PluginMetadata12internalNameEv@Base 0-1
 _ZNK6Hawaii14PluginMetadata14contactWebsiteEv@Base 0-1
 _ZNK6Hawaii14PluginMetadata4nameEv@Base 0-1
 _ZNK6Hawaii14PluginMetadata5valueERK7QString@Base 0-1
 _ZNK6Hawaii14PluginMetadata7authorsEv@Base 0-1
 _ZNK6Hawaii14PluginMetadata7commentEv@Base 0-1
 _ZNK6Hawaii14PluginMetadata7isValidEv@Base 0-1
 _ZNK6Hawaii14PluginMetadata7licenseEv@Base 0-1
 _ZNK6Hawaii14PluginMetadata7versionEv@Base 0-1
 _ZNK6Hawaii14PluginMetadata8iconNameEv@Base 0-1
 _ZNK6Hawaii14PluginMetadata8keywordsEv@Base 0-1
 _ZNK6Hawaii16PackageStructure10metaObjectEv@Base 0-1
 _ZNK6Hawaii19DataProviderManager10metaObjectEv@Base 0-1
 _ZNK6Hawaii7AppInfo10categoriesEv@Base 0-1
 _ZNK6Hawaii7AppInfo10metaObjectEv@Base 0-1
 _ZNK6Hawaii7AppInfo11genericNameEv@Base 0-1
 _ZNK6Hawaii7AppInfo12isExecutableEv@Base 0-1
 _ZNK6Hawaii7AppInfo4nameEv@Base 0-1
 _ZNK6Hawaii7AppInfo6isShowERK7QString@Base 0-1
 _ZNK6Hawaii7AppInfo7commentEv@Base 0-1
 _ZNK6Hawaii7AppInfo8fileNameEv@Base 0-1
 _ZNK6Hawaii7AppInfo8iconNameEv@Base 0-1
 _ZNK6Hawaii7AppInfo8isHiddenEv@Base 0-1
 _ZNK6Hawaii7Package10isRequiredEPKc@Base 0-1
 _ZNK6Hawaii7Package11directoriesEv@Base 0-1
 _ZNK6Hawaii7Package12contentsHashEv@Base 0-1
 _ZNK6Hawaii7Package13requiredFilesEv@Base 0-1
 _ZNK6Hawaii7Package18allowExternalPathsEv@Base 0-1
 _ZNK6Hawaii7Package18defaultPackageRootEv@Base 0-1
 _ZNK6Hawaii7Package19contentsPrefixPathsEv@Base 0-1
 _ZNK6Hawaii7Package19requiredDirectoriesEv@Base 0-1
 _ZNK6Hawaii7Package4nameEPKc@Base 0-1
 _ZNK6Hawaii7Package4pathEv@Base 0-1
 _ZNK6Hawaii7Package5filesEv@Base 0-1
 _ZNK6Hawaii7Package7isValidEv@Base 0-1
 _ZNK6Hawaii7Package8filePathEPKcRK7QString@Base 0-1
 _ZNK6Hawaii7Package8metadataEv@Base 0-1
 _ZNK6Hawaii7Package9entryListEPKc@Base 0-1
 _ZNK6Hawaii7Package9mimeTypesEPKc@Base 0-1
 _ZTIN6Hawaii10DataSourceE@Base 0-1
 _ZTIN6Hawaii12DataProviderE@Base 0-1
 _ZTIN6Hawaii16PackageStructureE@Base 0-1
 _ZTIN6Hawaii19DataProviderManagerE@Base 0-1
 _ZTIN6Hawaii7AppInfoE@Base 0-1
 _ZTSN6Hawaii10DataSourceE@Base 0-1
 _ZTSN6Hawaii12DataProviderE@Base 0-1
 _ZTSN6Hawaii16PackageStructureE@Base 0-1
 _ZTSN6Hawaii19DataProviderManagerE@Base 0-1
 _ZTSN6Hawaii7AppInfoE@Base 0-1
 _ZTVN6Hawaii10DataSourceE@Base 0-1
 _ZTVN6Hawaii12DataProviderE@Base 0-1
 _ZTVN6Hawaii16PackageStructureE@Base 0-1
 _ZTVN6Hawaii19DataProviderManagerE@Base 0-1
 _ZTVN6Hawaii7AppInfoE@Base 0-1
